target datalayout = "e-m:e-p270:32:32-p271:32:32-p272:64:64-i64:64-i128:128-f80:128-n8:16:32:64-S128"
target triple = "x86_64-pc-linux-gnu"

%struct.xcgroup_t = type { ptr, ptr, ptr, i32, i32, i32 }
%struct.stat = type { i64, i64, i64, i32, i32, i32, i32, i64, i64, i64, i64, %struct.timespec, %struct.timespec, %struct.timespec, [3 x i64] }
%struct.timespec = type { i64, i64 }

@.str.16 = private unnamed_addr constant [13 x i8] c"cgroup.procs\00", align 1
@.str.18 = private unnamed_addr constant [6 x i8] c"%s/%s\00", align 1
@.str.28 = private unnamed_addr constant [27 x i8] c"unable to add pids to '%s'\00", align 1
@.str.42 = private unnamed_addr constant [26 x i8] c"%s: failed on path %s: %m\00", align 1
@__func__._cgroup_procs_check = private unnamed_addr constant [20 x i8] c"_cgroup_procs_check\00", align 1

; Function Attrs: nounwind uwtable
define internal ptr @_cgroup_procs_check(ptr noundef %0, i32 noundef %1) #0 {
  %3 = alloca ptr, align 8
  %4 = alloca i32, align 4
  %5 = alloca %struct.stat, align 8
  %6 = alloca ptr, align 8
  store ptr %0, ptr %3, align 8
  store i32 %1, ptr %4, align 4
  call void @llvm.lifetime.start.p0(i64 144, ptr %5) #6
  call void @llvm.lifetime.start.p0(i64 8, ptr %6) #6
  %7 = load ptr, ptr %3, align 8
  %8 = getelementptr inbounds nuw %struct.xcgroup_t, ptr %7, i32 0, i32 2
  %9 = load ptr, ptr %8, align 8
  %10 = call ptr (ptr, ...) @xstrdup_printf(ptr noundef @.str.18, ptr noundef %9, ptr noundef @.str.16)
  store ptr %10, ptr %6, align 8
  %11 = load ptr, ptr %6, align 8
  %12 = call i32 @stat(ptr noundef %11, ptr noundef %5) #6
  %13 = icmp sge i32 %12, 0
  br i1 %13, label %14, label %20

14:                                               ; preds = %2
  %15 = getelementptr inbounds nuw %struct.stat, ptr %5, i32 0, i32 3
  %16 = load i32, ptr %15, align 8
  %17 = load i32, ptr %4, align 4
  %18 = and i32 %16, %17
  %19 = icmp ne i32 %18, 0
  br i1 %19, label %23, label %20

20:                                               ; preds = %14, %2
  %21 = load ptr, ptr %6, align 8
  %22 = call i32 (ptr, ...) @error(ptr noundef @.str.42, ptr noundef @__func__._cgroup_procs_check, ptr noundef %21)
  call void @slurm_xfree(ptr noundef %6)
  br label %23

23:                                               ; preds = %20, %14
  %24 = load ptr, ptr %6, align 8
  call void @llvm.lifetime.end.p0(i64 8, ptr %6) #6
  call void @llvm.lifetime.end.p0(i64 144, ptr %5) #6
  ret ptr %24
}

; Function Attrs: nounwind uwtable
define internal ptr @_cgroup_procs_writable_path(ptr noundef %0) #0 {
  %2 = alloca ptr, align 8
  store ptr %0, ptr %2, align 8
  %3 = load ptr, ptr %2, align 8
  %4 = call ptr @_cgroup_procs_check(ptr noundef %3, i32 noundef 128)
  ret ptr %4
}

; Function Attrs: nounwind uwtable
define dso_local i32 @common_cgroup_add_pids(ptr noundef %0, ptr noundef %1, i32 noundef %2) #0 {
  %4 = alloca ptr, align 8
  %5 = alloca ptr, align 8
  %6 = alloca i32, align 4
  %7 = alloca i32, align 4
  %8 = alloca ptr, align 8
  store ptr %0, ptr %4, align 8
  store ptr %1, ptr %5, align 8
  store i32 %2, ptr %6, align 4
  call void @llvm.lifetime.start.p0(i64 4, ptr %7) #6
  store i32 -1, ptr %7, align 4
  call void @llvm.lifetime.start.p0(i64 8, ptr %8) #6
  %9 = load ptr, ptr %4, align 8
  %10 = call ptr @_cgroup_procs_writable_path(ptr noundef %9)
  store ptr %10, ptr %8, align 8
  %11 = load ptr, ptr %8, align 8
  %12 = load ptr, ptr %5, align 8
  %13 = load i32, ptr %6, align 4
  %14 = call i32 @common_file_write_uints(ptr noundef %11, ptr noundef %12, i32 noundef %13, i32 noundef 32)
  store i32 %14, ptr %7, align 4
  %15 = load i32, ptr %7, align 4
  %16 = icmp ne i32 %15, 0
  br i1 %16, label %17, label %22

17:                                               ; preds = %3
  %18 = load ptr, ptr %4, align 8
  %19 = getelementptr inbounds nuw %struct.xcgroup_t, ptr %18, i32 0, i32 2
  %20 = load ptr, ptr %19, align 8
  %21 = call i32 (ptr, ...) @error(ptr noundef @.str.28, ptr noundef %20)
  br label %22

22:                                               ; preds = %17, %3
  call void @slurm_xfree(ptr noundef %8)
  %23 = load i32, ptr %7, align 4
  call void @llvm.lifetime.end.p0(i64 8, ptr %8) #6
  call void @llvm.lifetime.end.p0(i64 4, ptr %7) #6
  ret i32 %23
}