; Function Attrs: nounwind uwtable
define dso_local i32 @common_cgroup_add_pids(ptr noundef readonly captures(none) %0, ptr noundef readonly captures(none) %1, i32 noundef %2) local_unnamed_addr #0 {
  %4 = alloca %struct.stat, align 8
  %5 = alloca ptr, align 8
  %6 = alloca ptr, align 8
  call void @llvm.lifetime.start.p0(i64 8, ptr nonnull %6) #8
  %7 = getelementptr i8, ptr %0, i64 16
  %.val = load ptr, ptr %7, align 8
  call void @llvm.lifetime.start.p0(i64 144, ptr nonnull %4) #8
  call void @llvm.lifetime.start.p0(i64 8, ptr nonnull %5) #8
  %8 = tail call ptr (ptr, ...) @xstrdup_printf(ptr noundef nonnull @.str.18, ptr noundef %.val, ptr noundef nonnull @.str.16) #8
  store ptr %8, ptr %5, align 8
  %9 = call i32 @stat(ptr noundef %8, ptr noundef nonnull %4) #8
  %10 = icmp sgt i32 %9, -1
  br i1 %10, label %11, label %15

11:                                               ; preds = %3
  %12 = getelementptr inbounds nuw i8, ptr %4, i64 24
  %13 = load i32, ptr %12, align 8
  %14 = and i32 %13, 128
  %.not.i.i = icmp eq i32 %14, 0
  br i1 %.not.i.i, label %15, label %_cgroup_procs_writable_path.exit

15:                                               ; preds = %11, %3
  %16 = tail call i32 (ptr, ...) @error(ptr noundef nonnull @.str.42, ptr noundef nonnull @__func__._cgroup_procs_check, ptr noundef %8) #8
  call void @slurm_xfree(ptr noundef nonnull %5) #8
  %.pre.i.i = load ptr, ptr %5, align 8
  br label %_cgroup_procs_writable_path.exit

_cgroup_procs_writable_path.exit:                 ; preds = %11, %15
  %17 = phi ptr [ %.pre.i.i, %15 ], [ %8, %11 ]
  call void @llvm.lifetime.end.p0(i64 8, ptr nonnull %5) #8
  call void @llvm.lifetime.end.p0(i64 144, ptr nonnull %4) #8
  store ptr %17, ptr %6, align 8
  %18 = call i32 @common_file_write_uints(ptr noundef %17, ptr noundef %1, i32 noundef %2, i32 noundef 32)
  %.not = icmp eq i32 %18, 0
  br i1 %.not, label %22, label %19

19:                                               ; preds = %_cgroup_procs_writable_path.exit
  %20 = load ptr, ptr %7, align 8
  %21 = call i32 (ptr, ...) @error(ptr noundef nonnull @.str.28, ptr noundef %20) #8
  br label %22

22:                                               ; preds = %19, %_cgroup_procs_writable_path.exit
  call void @slurm_xfree(ptr noundef nonnull %6) #8
  call void @llvm.lifetime.end.p0(i64 8, ptr nonnull %6) #8
  ret i32 %18
}